; Function Attrs: inlinehint mustprogress nounwind willreturn uwtable
define internal fastcc range(i32 -2147483648, 2147483647) i32 @Cbs3_ManAddNode(ptr noundef captures(none) %0, i32 noundef %1, i32 noundef %2, i32 noundef %3) unnamed_addr #6 {
  %5 = getelementptr inbounds nuw i8, ptr %0, i64 144
  %6 = getelementptr inbounds nuw i8, ptr %0, i64 148
  %7 = load i32, ptr %6, align 4, !tbaa !31
  %8 = load i32, ptr %5, align 8, !tbaa !32
  %9 = icmp eq i32 %7, %8
  br i1 %9, label %10, label %.Vec_IntGrow.exit10_crit_edge.i

.Vec_IntGrow.exit10_crit_edge.i:                  ; preds = %4
  %.phi.trans.insert.i = getelementptr inbounds nuw i8, ptr %0, i64 152
  %.pre.i = load ptr, ptr %.phi.trans.insert.i, align 8, !tbaa !33
  br label %Vec_IntPush.exit

10:                                               ; preds = %4
  %11 = icmp slt i32 %7, 16
  br i1 %11, label %12, label %20

12:                                               ; preds = %10
  %13 = getelementptr inbounds nuw i8, ptr %0, i64 152
  %14 = load ptr, ptr %13, align 8, !tbaa !33
  %.not9.i.i = icmp eq ptr %14, null
  br i1 %.not9.i.i, label %17, label %15

15:                                               ; preds = %12
  %16 = tail call dereferenceable_or_null(64) ptr @realloc(ptr noundef nonnull %14, i64 noundef 64) #24
  br label %Vec_IntGrow.exit.i

17:                                               ; preds = %12
  %18 = tail call noalias dereferenceable_or_null(64) ptr @malloc(i64 noundef 64) #23
  br label %Vec_IntGrow.exit.i

Vec_IntGrow.exit.i:                               ; preds = %17, %15
  %19 = phi ptr [ %16, %15 ], [ %18, %17 ]
  store ptr %19, ptr %13, align 8, !tbaa !33
  store i32 16, ptr %5, align 8, !tbaa !32
  br label %Vec_IntPush.exit

20:                                               ; preds = %10
  %21 = shl nuw nsw i32 %7, 1
  %22 = getelementptr inbounds nuw i8, ptr %0, i64 152
  %23 = load ptr, ptr %22, align 8, !tbaa !33
  %.not9.i9.i = icmp eq ptr %23, null
  %24 = zext nneg i32 %21 to i64
  %25 = shl nuw nsw i64 %24, 2
  br i1 %.not9.i9.i, label %28, label %26

26:                                               ; preds = %20
  %27 = tail call ptr @realloc(ptr noundef nonnull %23, i64 noundef %25) #24
  br label %30

28:                                               ; preds = %20
  %29 = tail call noalias ptr @malloc(i64 noundef %25) #23
  br label %30

30:                                               ; preds = %28, %26
  %31 = phi ptr [ %27, %26 ], [ %29, %28 ]
  store ptr %31, ptr %22, align 8, !tbaa !33
  store i32 %21, ptr %5, align 8, !tbaa !32
  br label %Vec_IntPush.exit

Vec_IntPush.exit:                                 ; preds = %.Vec_IntGrow.exit10_crit_edge.i, %Vec_IntGrow.exit.i, %30
  %32 = phi ptr [ %.pre.i, %.Vec_IntGrow.exit10_crit_edge.i ], [ %31, %30 ], [ %19, %Vec_IntGrow.exit.i ]
  %33 = load i32, ptr %6, align 4, !tbaa !31
  %34 = add nsw i32 %33, 1
  store i32 %34, ptr %6, align 4, !tbaa !31
  %35 = sext i32 %33 to i64
  %36 = getelementptr inbounds i32, ptr %32, i64 %35
  store i32 %1, ptr %36, align 4, !tbaa !37
  %37 = getelementptr inbounds nuw i8, ptr %0, i64 160
  %38 = getelementptr inbounds nuw i8, ptr %0, i64 32
  %39 = load ptr, ptr %38, align 8, !tbaa !36
  %40 = getelementptr i8, ptr %39, i64 144
  %.val = load ptr, ptr %40, align 8, !tbaa !132
  %41 = sext i32 %1 to i64
  %42 = getelementptr inbounds i32, ptr %.val, i64 %41
  %43 = load i32, ptr %42, align 4, !tbaa !37
  %44 = getelementptr inbounds nuw i8, ptr %0, i64 164
  %45 = load i32, ptr %44, align 4, !tbaa !31
  %46 = load i32, ptr %37, align 8, !tbaa !32
  %47 = icmp eq i32 %45, %46
  br i1 %47, label %48, label %.Vec_IntGrow.exit10_crit_edge.i8

.Vec_IntGrow.exit10_crit_edge.i8:                 ; preds = %Vec_IntPush.exit
  %.phi.trans.insert.i9 = getelementptr inbounds nuw i8, ptr %0, i64 168
  %.pre.i10 = load ptr, ptr %.phi.trans.insert.i9, align 8, !tbaa !33
  br label %Vec_IntPush.exit14

48:                                               ; preds = %Vec_IntPush.exit
  %49 = icmp slt i32 %45, 16
  br i1 %49, label %50, label %58

50:                                               ; preds = %48
  %51 = getelementptr inbounds nuw i8, ptr %0, i64 168
  %52 = load ptr, ptr %51, align 8, !tbaa !33
  %.not9.i.i12 = icmp eq ptr %52, null
  br i1 %.not9.i.i12, label %55, label %53

53:                                               ; preds = %50
  %54 = tail call dereferenceable_or_null(64) ptr @realloc(ptr noundef nonnull %52, i64 noundef 64) #24
  br label %Vec_IntGrow.exit.i13

55:                                               ; preds = %50
  %56 = tail call noalias dereferenceable_or_null(64) ptr @malloc(i64 noundef 64) #23
  br label %Vec_IntGrow.exit.i13

Vec_IntGrow.exit.i13:                             ; preds = %55, %53
  %57 = phi ptr [ %54, %53 ], [ %56, %55 ]
  store ptr %57, ptr %51, align 8, !tbaa !33
  store i32 16, ptr %37, align 8, !tbaa !32
  br label %Vec_IntPush.exit14

58:                                               ; preds = %48
  %59 = shl nuw nsw i32 %45, 1
  %60 = getelementptr inbounds nuw i8, ptr %0, i64 168
  %61 = load ptr, ptr %60, align 8, !tbaa !33
  %.not9.i9.i11 = icmp eq ptr %61, null
  %62 = zext nneg i32 %59 to i64
  %63 = shl nuw nsw i64 %62, 2
  br i1 %.not9.i9.i11, label %66, label %64

64:                                               ; preds = %58
  %65 = tail call ptr @realloc(ptr noundef nonnull %61, i64 noundef %63) #24
  br label %68

66:                                               ; preds = %58
  %67 = tail call noalias ptr @malloc(i64 noundef %63) #23
  br label %68

68:                                               ; preds = %66, %64
  %69 = phi ptr [ %65, %64 ], [ %67, %66 ]
  store ptr %69, ptr %60, align 8, !tbaa !33
  store i32 %59, ptr %37, align 8, !tbaa !32
  br label %Vec_IntPush.exit14

Vec_IntPush.exit14:                               ; preds = %.Vec_IntGrow.exit10_crit_edge.i8, %Vec_IntGrow.exit.i13, %68
  %70 = phi ptr [ %.pre.i10, %.Vec_IntGrow.exit10_crit_edge.i8 ], [ %69, %68 ], [ %57, %Vec_IntGrow.exit.i13 ]
  %71 = load i32, ptr %44, align 4, !tbaa !31
  %72 = add nsw i32 %71, 1
  store i32 %72, ptr %44, align 4, !tbaa !31
  %73 = sext i32 %71 to i64
  %74 = getelementptr inbounds i32, ptr %70, i64 %73
  store i32 %43, ptr %74, align 4, !tbaa !37
  %75 = getelementptr inbounds nuw i8, ptr %0, i64 176
  tail call fastcc void @Vec_IntPushTwo(ptr noundef nonnull %75, i32 noundef %2, i32 noundef %3)
  %76 = getelementptr inbounds nuw i8, ptr %0, i64 128
  %77 = load i32, ptr %76, align 8, !tbaa !41
  %78 = add nsw i32 %77, 1
  store i32 %78, ptr %76, align 8, !tbaa !41
  %79 = shl nsw i32 %77, 1
  ret i32 %79
}